target datalayout = "e-m:e-p270:32:32-p271:32:32-p272:64:64-i64:64-i128:128-f80:128-n8:16:32:64-S128"
target triple = "x86_64-pc-linux-gnu"

; Function Attrs: nounwind uwtable
define ptr @cl_hash_file_fd(i32 noundef %0, ptr noundef %1, ptr noundef %2) #0 {
  %4 = alloca ptr, align 8
  %5 = alloca i32, align 4
  %6 = alloca ptr, align 8
  %7 = alloca ptr, align 8
  %8 = alloca ptr, align 8
  %9 = alloca ptr, align 8
  %10 = alloca ptr, align 8
  %11 = alloca i32, align 4
  store i32 %0, ptr %5, align 4, !tbaa !13
  store ptr %1, ptr %6, align 8, !tbaa !3
  store ptr %2, ptr %7, align 8, !tbaa !11
  call void @llvm.lifetime.start.p0(i64 8, ptr %8) #8
  call void @llvm.lifetime.start.p0(i64 8, ptr %9) #8
  call void @llvm.lifetime.start.p0(i64 8, ptr %10) #8
  %12 = load ptr, ptr %6, align 8, !tbaa !3
  %13 = call ptr @EVP_get_digestbyname(ptr noundef %12)
  store ptr %13, ptr %9, align 8, !tbaa !15
  %14 = load ptr, ptr %9, align 8, !tbaa !15
  %15 = icmp ne ptr %14, null
  br i1 %15, label %17, label %16

16:                                               ; preds = %3
  store ptr null, ptr %4, align 8
  store i32 1, ptr %11, align 4
  br label %37

17:                                               ; preds = %3
  %18 = call ptr @EVP_MD_CTX_new()
  store ptr %18, ptr %8, align 8, !tbaa !17
  %19 = load ptr, ptr %8, align 8, !tbaa !17
  %20 = icmp ne ptr %19, null
  br i1 %20, label %22, label %21

21:                                               ; preds = %17
  store ptr null, ptr %4, align 8
  store i32 1, ptr %11, align 4
  br label %37

22:                                               ; preds = %17
  %23 = load ptr, ptr %8, align 8, !tbaa !17
  call void @EVP_MD_CTX_set_flags(ptr noundef %23, i32 noundef 8)
  %24 = load ptr, ptr %8, align 8, !tbaa !17
  %25 = load ptr, ptr %9, align 8, !tbaa !15
  %26 = call i32 @EVP_DigestInit_ex(ptr noundef %24, ptr noundef %25, ptr noundef null)
  %27 = icmp ne i32 %26, 0
  br i1 %27, label %30, label %28

28:                                               ; preds = %22
  %29 = load ptr, ptr %8, align 8, !tbaa !17
  call void @EVP_MD_CTX_free(ptr noundef %29)
  store ptr null, ptr %4, align 8
  store i32 1, ptr %11, align 4
  br label %37

30:                                               ; preds = %22
  %31 = load ptr, ptr %8, align 8, !tbaa !17
  %32 = load i32, ptr %5, align 4, !tbaa !13
  %33 = load ptr, ptr %7, align 8, !tbaa !11
  %34 = call ptr @cl_hash_file_fd_ctx(ptr noundef %31, i32 noundef %32, ptr noundef %33)
  store ptr %34, ptr %10, align 8, !tbaa !3
  %35 = load ptr, ptr %8, align 8, !tbaa !17
  call void @EVP_MD_CTX_free(ptr noundef %35)
  %36 = load ptr, ptr %10, align 8, !tbaa !3
  store ptr %36, ptr %4, align 8
  store i32 1, ptr %11, align 4
  br label %37

37:                                               ; preds = %30, %28, %21, %16
  call void @llvm.lifetime.end.p0(i64 8, ptr %10) #8
  call void @llvm.lifetime.end.p0(i64 8, ptr %9) #8
  call void @llvm.lifetime.end.p0(i64 8, ptr %8) #8
  %38 = load ptr, ptr %4, align 8
  ret ptr %38
}

; Function Attrs: nounwind uwtable
define i32 @cl_verify_signature_fd(ptr noundef %0, ptr noundef %1, ptr noundef %2, i32 noundef %3, i32 noundef %4) #0 {
  %6 = alloca i32, align 4
  %7 = alloca ptr, align 8
  %8 = alloca ptr, align 8
  %9 = alloca ptr, align 8
  %10 = alloca i32, align 4
  %11 = alloca i32, align 4
  %12 = alloca ptr, align 8
  %13 = alloca ptr, align 8
  %14 = alloca i64, align 8
  %15 = alloca ptr, align 8
  %16 = alloca i32, align 4
  store ptr %0, ptr %7, align 8, !tbaa !24
  store ptr %1, ptr %8, align 8, !tbaa !3
  store ptr %2, ptr %9, align 8, !tbaa !3
  store i32 %3, ptr %10, align 4, !tbaa !13
  store i32 %4, ptr %11, align 4, !tbaa !13
  call void @llvm.lifetime.start.p0(i64 8, ptr %12) #8
  call void @llvm.lifetime.start.p0(i64 8, ptr %13) #8
  call void @llvm.lifetime.start.p0(i64 8, ptr %14) #8
  call void @llvm.lifetime.start.p0(i64 8, ptr %15) #8
  %17 = load i32, ptr %11, align 4, !tbaa !13
  %18 = load ptr, ptr %8, align 8, !tbaa !3
  %19 = call ptr @cl_hash_file_fd(i32 noundef %17, ptr noundef %18, ptr noundef null)
  store ptr %19, ptr %15, align 8, !tbaa !3
  %20 = load ptr, ptr %15, align 8, !tbaa !3
  %21 = icmp ne ptr %20, null
  br i1 %21, label %23, label %22

22:                                               ; preds = %5
  store i32 -1, ptr %6, align 4
  store i32 1, ptr %16, align 4
  br label %70

23:                                               ; preds = %5
  %24 = load ptr, ptr %8, align 8, !tbaa !3
  %25 = call ptr @EVP_get_digestbyname(ptr noundef %24)
  store ptr %25, ptr %13, align 8, !tbaa !15
  %26 = load ptr, ptr %13, align 8, !tbaa !15
  %27 = icmp ne ptr %26, null
  br i1 %27, label %30, label %28

28:                                               ; preds = %23
  %29 = load ptr, ptr %15, align 8, !tbaa !3
  call void @free(ptr noundef %29) #8
  store i32 -1, ptr %6, align 4
  store i32 1, ptr %16, align 4
  br label %70

30:                                               ; preds = %23
  %31 = load ptr, ptr %13, align 8, !tbaa !15
  %32 = call i32 @EVP_MD_get_size(ptr noundef %31)
  %33 = sext i32 %32 to i64
  store i64 %33, ptr %14, align 8, !tbaa !9
  %34 = call ptr @EVP_MD_CTX_new()
  store ptr %34, ptr %12, align 8, !tbaa !17
  %35 = load ptr, ptr %12, align 8, !tbaa !17
  %36 = icmp ne ptr %35, null
  br i1 %36, label %39, label %37

37:                                               ; preds = %30
  %38 = load ptr, ptr %15, align 8, !tbaa !3
  call void @free(ptr noundef %38) #8
  store i32 -1, ptr %6, align 4
  store i32 1, ptr %16, align 4
  br label %70

39:                                               ; preds = %30
  %40 = load ptr, ptr %12, align 8, !tbaa !17
  call void @EVP_MD_CTX_set_flags(ptr noundef %40, i32 noundef 8)
  %41 = load ptr, ptr %12, align 8, !tbaa !17
  %42 = load ptr, ptr %13, align 8, !tbaa !15
  %43 = call i32 @EVP_DigestInit_ex(ptr noundef %41, ptr noundef %42, ptr noundef null)
  %44 = icmp ne i32 %43, 0
  br i1 %44, label %48, label %45

45:                                               ; preds = %39
  %46 = load ptr, ptr %15, align 8, !tbaa !3
  call void @free(ptr noundef %46) #8
  %47 = load ptr, ptr %12, align 8, !tbaa !17
  call void @EVP_MD_CTX_free(ptr noundef %47)
  store i32 -1, ptr %6, align 4
  store i32 1, ptr %16, align 4
  br label %70

48:                                               ; preds = %39
  %49 = load ptr, ptr %12, align 8, !tbaa !17
  %50 = load ptr, ptr %15, align 8, !tbaa !3
  %51 = load i64, ptr %14, align 8, !tbaa !9
  %52 = call i32 @EVP_DigestUpdate(ptr noundef %49, ptr noundef %50, i64 noundef %51)
  %53 = icmp ne i32 %52, 0
  br i1 %53, label %57, label %54

54:                                               ; preds = %48
  %55 = load ptr, ptr %15, align 8, !tbaa !3
  call void @free(ptr noundef %55) #8
  %56 = load ptr, ptr %12, align 8, !tbaa !17
  call void @EVP_MD_CTX_free(ptr noundef %56)
  store i32 -1, ptr %6, align 4
  store i32 1, ptr %16, align 4
  br label %70

57:                                               ; preds = %48
  %58 = load ptr, ptr %12, align 8, !tbaa !17
  %59 = load ptr, ptr %9, align 8, !tbaa !3
  %60 = load i32, ptr %10, align 4, !tbaa !13
  %61 = load ptr, ptr %7, align 8, !tbaa !24
  %62 = call i32 @EVP_VerifyFinal(ptr noundef %58, ptr noundef %59, i32 noundef %60, ptr noundef %61)
  %63 = icmp sle i32 %62, 0
  br i1 %63, label %64, label %67

64:                                               ; preds = %57
  %65 = load ptr, ptr %15, align 8, !tbaa !3
  call void @free(ptr noundef %65) #8
  %66 = load ptr, ptr %12, align 8, !tbaa !17
  call void @EVP_MD_CTX_free(ptr noundef %66)
  store i32 -1, ptr %6, align 4
  store i32 1, ptr %16, align 4
  br label %70

67:                                               ; preds = %57
  %68 = load ptr, ptr %15, align 8, !tbaa !3
  call void @free(ptr noundef %68) #8
  %69 = load ptr, ptr %12, align 8, !tbaa !17
  call void @EVP_MD_CTX_free(ptr noundef %69)
  store i32 0, ptr %6, align 4
  store i32 1, ptr %16, align 4
  br label %70

70:                                               ; preds = %67, %64, %54, %45, %37, %28, %22
  call void @llvm.lifetime.end.p0(i64 8, ptr %15) #8
  call void @llvm.lifetime.end.p0(i64 8, ptr %14) #8
  call void @llvm.lifetime.end.p0(i64 8, ptr %13) #8
  call void @llvm.lifetime.end.p0(i64 8, ptr %12) #8
  %71 = load i32, ptr %6, align 4
  ret i32 %71
}