; Function Attrs: nounwind uwtable
define range(i32 -1, 1) i32 @cl_verify_signature_fd(ptr noundef %0, ptr noundef %1, ptr noundef %2, i32 noundef %3, i32 noundef %4) local_unnamed_addr #1 {
  %6 = tail call ptr @EVP_get_digestbyname(ptr noundef %1) #12
  %.not.i = icmp eq ptr %6, null
  br i1 %.not.i, label %cl_hash_file_fd.exit.thread, label %7

7:                                                ; preds = %5
  %8 = tail call ptr @EVP_MD_CTX_new() #12
  %.not14.i = icmp eq ptr %8, null
  br i1 %.not14.i, label %cl_hash_file_fd.exit.thread, label %9

9:                                                ; preds = %7
  tail call void @EVP_MD_CTX_set_flags(ptr noundef nonnull %8, i32 noundef 8) #12
  %10 = tail call i32 @EVP_DigestInit_ex(ptr noundef nonnull %8, ptr noundef nonnull %6, ptr noundef null) #12
  %.not15.i = icmp eq i32 %10, 0
  br i1 %.not15.i, label %cl_hash_file_fd.exit.thread36, label %cl_hash_file_fd.exit

cl_hash_file_fd.exit.thread36:                    ; preds = %9
  tail call void @EVP_MD_CTX_free(ptr noundef nonnull %8) #12
  br label %cl_hash_file_fd.exit.thread

cl_hash_file_fd.exit:                             ; preds = %9
  %11 = tail call ptr @cl_hash_file_fd_ctx(ptr noundef nonnull %8, i32 noundef %4, ptr noundef null)
  tail call void @EVP_MD_CTX_free(ptr noundef nonnull %8) #12
  %.not = icmp eq ptr %11, null
  br i1 %.not, label %cl_hash_file_fd.exit.thread, label %12

12:                                               ; preds = %cl_hash_file_fd.exit
  %13 = tail call ptr @EVP_get_digestbyname(ptr noundef %1) #12
  %.not30 = icmp eq ptr %13, null
  br i1 %.not30, label %14, label %15

14:                                               ; preds = %12
  tail call void @free(ptr noundef nonnull %11) #12
  br label %cl_hash_file_fd.exit.thread

15:                                               ; preds = %12
  %16 = tail call i32 @EVP_MD_get_size(ptr noundef nonnull %13) #12
  %17 = sext i32 %16 to i64
  %18 = tail call ptr @EVP_MD_CTX_new() #12
  %.not31 = icmp eq ptr %18, null
  br i1 %.not31, label %19, label %20

19:                                               ; preds = %15
  tail call void @free(ptr noundef nonnull %11) #12
  br label %cl_hash_file_fd.exit.thread

20:                                               ; preds = %15
  tail call void @EVP_MD_CTX_set_flags(ptr noundef nonnull %18, i32 noundef 8) #12
  %21 = tail call i32 @EVP_DigestInit_ex(ptr noundef nonnull %18, ptr noundef nonnull %13, ptr noundef null) #12
  %.not32 = icmp eq i32 %21, 0
  br i1 %.not32, label %22, label %23

22:                                               ; preds = %20
  tail call void @free(ptr noundef nonnull %11) #12
  tail call void @EVP_MD_CTX_free(ptr noundef nonnull %18) #12
  br label %cl_hash_file_fd.exit.thread

23:                                               ; preds = %20
  %24 = tail call i32 @EVP_DigestUpdate(ptr noundef nonnull %18, ptr noundef nonnull %11, i64 noundef %17) #12
  %.not33 = icmp eq i32 %24, 0
  br i1 %.not33, label %25, label %26

25:                                               ; preds = %23
  tail call void @free(ptr noundef nonnull %11) #12
  tail call void @EVP_MD_CTX_free(ptr noundef nonnull %18) #12
  br label %cl_hash_file_fd.exit.thread

26:                                               ; preds = %23
  %27 = tail call i32 @EVP_VerifyFinal(ptr noundef nonnull %18, ptr noundef %2, i32 noundef %3, ptr noundef %0) #12
  %28 = icmp slt i32 %27, 1
  tail call void @free(ptr noundef nonnull %11) #12
  tail call void @EVP_MD_CTX_free(ptr noundef nonnull %18) #12
  %. = sext i1 %28 to i32
  br label %cl_hash_file_fd.exit.thread

cl_hash_file_fd.exit.thread:                      ; preds = %7, %5, %cl_hash_file_fd.exit.thread36, %26, %cl_hash_file_fd.exit, %25, %22, %19, %14
  %.0 = phi i32 [ -1, %25 ], [ -1, %22 ], [ -1, %19 ], [ -1, %14 ], [ -1, %cl_hash_file_fd.exit ], [ %., %26 ], [ -1, %cl_hash_file_fd.exit.thread36 ], [ -1, %5 ], [ -1, %7 ]
  ret i32 %.0
}